; Function Attrs: nounwind uwtable
define ptr @l_Lean_Elab_WF_GuessLex_GuessLexRel_toNatRel(i8 noundef zeroext %0) local_unnamed_addr #1 {
  switch i8 %0, label %8 [
    i8 0, label %2
    i8 1, label %4
    i8 2, label %6
  ]

2:                                                ; preds = %1
  %3 = load ptr, ptr @l_Lean_Elab_WF_GuessLex_GuessLexRel_toNatRel___closed__10, align 8, !tbaa !4
  br label %11

4:                                                ; preds = %1
  %5 = load ptr, ptr @l_Lean_Elab_WF_GuessLex_GuessLexRel_toNatRel___closed__17, align 8, !tbaa !4
  br label %11

6:                                                ; preds = %1
  %7 = load ptr, ptr @l_Lean_Elab_WF_GuessLex_GuessLexRel_toNatRel___closed__25, align 8, !tbaa !4
  br label %11

8:                                                ; preds = %1
  %9 = load ptr, ptr @l_Lean_Elab_WF_GuessLex_GuessLexRel_toNatRel___closed__28, align 8, !tbaa !4
  %10 = tail call ptr @l_panic___at_Lean_Expr_appFn_x21___spec__1(ptr noundef %9) #8
  br label %11

11:                                               ; preds = %8, %6, %4, %2
  %.0 = phi ptr [ %10, %8 ], [ %7, %6 ], [ %5, %4 ], [ %3, %2 ]
  ret ptr %.0
}